target datalayout = "e-m:e-p270:32:32-p271:32:32-p272:64:64-i64:64-i128:128-f80:128-n8:16:32:64-S128"
target triple = "x86_64-pc-linux-gnu"

%struct.RelFileLocator = type { i32, i32, i32 }
%struct.xl_standby_lock = type { i32, i32, i32 }
%struct.RunningTransactionsData = type { i32, i32, i32, i32, i32, i32, i32, ptr }
%struct.XLogReaderState = type { %struct.XLogReaderRoutine, i64, ptr, i64, i64, i64, i64, i64, i64, i64, i64, ptr, ptr, i64, i8, ptr, ptr, ptr, ptr, ptr, i32, %struct.WALSegmentContext, %struct.WALOpenSegment, i32, i64, i32, i64, i32, i64, i32, ptr, i32, ptr, i8, i8 }
%struct.XLogReaderRoutine = type { ptr, ptr, ptr }
%struct.WALSegmentContext = type { [1024 x i8], i32 }
%struct.WALOpenSegment = type { i32, i64, i32 }
%struct.DecodedXLogRecord = type { i64, i8, ptr, i64, i64, %struct.XLogRecord, i16, i32, ptr, i32, i32, [0 x %struct.DecodedBkpBlock] }
%struct.XLogRecord = type { i32, i32, i64, i8, i8, i32 }
%struct.DecodedBkpBlock = type { i8, %struct.RelFileLocator, i32, i32, i32, i8, i8, i8, ptr, i16, i16, i16, i8, i8, ptr, i16, i16 }
%struct.xl_standby_locks = type { i32, [0 x %struct.xl_standby_lock] }
%struct.xl_running_xacts = type { i32, i32, i8, i32, i32, i32, [0 x i32] }
%struct.xl_invalidations = type { i32, i32, i8, i32, [0 x %union.SharedInvalidationMessage] }
%union.SharedInvalidationMessage = type { %struct.SharedInvalSmgrMsg }
%struct.SharedInvalSmgrMsg = type { i8, i8, i16, %struct.RelFileLocator }

@standbyState = external global i32, align 4
@.str.7 = private unnamed_addr constant [10 x i8] c"standby.c\00", align 1
@.str.13 = private unnamed_addr constant [33 x i8] c"standby_redo: unknown op code %u\00", align 1
@__func__.standby_redo = private unnamed_addr constant [13 x i8] c"standby_redo\00", align 1

; Function Attrs: nounwind uwtable
define dso_local void @standby_redo(ptr noundef %0) #0 {
  %2 = alloca ptr, align 8
  %3 = alloca i8, align 1
  %4 = alloca i32, align 4
  %5 = alloca ptr, align 8
  %6 = alloca i32, align 4
  %7 = alloca ptr, align 8
  %8 = alloca %struct.RunningTransactionsData, align 8
  %9 = alloca ptr, align 8
  store ptr %0, ptr %2, align 8
  call void @llvm.lifetime.start.p0(i64 1, ptr %3) #8
  %10 = load ptr, ptr %2, align 8
  %11 = getelementptr inbounds nuw %struct.XLogReaderState, ptr %10, i32 0, i32 11
  %12 = load ptr, ptr %11, align 8
  %13 = getelementptr inbounds nuw %struct.DecodedXLogRecord, ptr %12, i32 0, i32 5
  %14 = getelementptr inbounds nuw %struct.XLogRecord, ptr %13, i32 0, i32 3
  %15 = load i8, ptr %14, align 8
  %16 = zext i8 %15 to i32
  %17 = and i32 %16, -16
  %18 = trunc i32 %17 to i8
  store i8 %18, ptr %3, align 1
  %19 = load i32, ptr @standbyState, align 4
  %20 = icmp eq i32 %19, 0
  br i1 %20, label %21, label %22

21:                                               ; preds = %1
  store i32 1, ptr %4, align 4
  br label %147

22:                                               ; preds = %1
  %23 = load i8, ptr %3, align 1
  %24 = zext i8 %23 to i32
  %25 = icmp eq i32 %24, 0
  br i1 %25, label %26, label %64

26:                                               ; preds = %22
  call void @llvm.lifetime.start.p0(i64 8, ptr %5) #8
  %27 = load ptr, ptr %2, align 8
  %28 = getelementptr inbounds nuw %struct.XLogReaderState, ptr %27, i32 0, i32 11
  %29 = load ptr, ptr %28, align 8
  %30 = getelementptr inbounds nuw %struct.DecodedXLogRecord, ptr %29, i32 0, i32 8
  %31 = load ptr, ptr %30, align 8
  store ptr %31, ptr %5, align 8
  call void @llvm.lifetime.start.p0(i64 4, ptr %6) #8
  store i32 0, ptr %6, align 4
  br label %32

32:                                               ; preds = %60, %26
  %33 = load i32, ptr %6, align 4
  %34 = load ptr, ptr %5, align 8
  %35 = getelementptr inbounds nuw %struct.xl_standby_locks, ptr %34, i32 0, i32 0
  %36 = load i32, ptr %35, align 4
  %37 = icmp slt i32 %33, %36
  br i1 %37, label %38, label %63

38:                                               ; preds = %32
  %39 = load ptr, ptr %5, align 8
  %40 = getelementptr inbounds nuw %struct.xl_standby_locks, ptr %39, i32 0, i32 1
  %41 = load i32, ptr %6, align 4
  %42 = sext i32 %41 to i64
  %43 = getelementptr inbounds [0 x %struct.xl_standby_lock], ptr %40, i64 0, i64 %42
  %44 = getelementptr inbounds nuw %struct.xl_standby_lock, ptr %43, i32 0, i32 0
  %45 = load i32, ptr %44, align 4
  %46 = load ptr, ptr %5, align 8
  %47 = getelementptr inbounds nuw %struct.xl_standby_locks, ptr %46, i32 0, i32 1
  %48 = load i32, ptr %6, align 4
  %49 = sext i32 %48 to i64
  %50 = getelementptr inbounds [0 x %struct.xl_standby_lock], ptr %47, i64 0, i64 %49
  %51 = getelementptr inbounds nuw %struct.xl_standby_lock, ptr %50, i32 0, i32 1
  %52 = load i32, ptr %51, align 4
  %53 = load ptr, ptr %5, align 8
  %54 = getelementptr inbounds nuw %struct.xl_standby_locks, ptr %53, i32 0, i32 1
  %55 = load i32, ptr %6, align 4
  %56 = sext i32 %55 to i64
  %57 = getelementptr inbounds [0 x %struct.xl_standby_lock], ptr %54, i64 0, i64 %56
  %58 = getelementptr inbounds nuw %struct.xl_standby_lock, ptr %57, i32 0, i32 2
  %59 = load i32, ptr %58, align 4
  call void @StandbyAcquireAccessExclusiveLock(i32 noundef %45, i32 noundef %52, i32 noundef %59)
  br label %60

60:                                               ; preds = %38
  %61 = load i32, ptr %6, align 4
  %62 = add i32 %61, 1
  store i32 %62, ptr %6, align 4
  br label %32, !llvm.loop !16

63:                                               ; preds = %32
  call void @llvm.lifetime.end.p0(i64 4, ptr %6) #8
  call void @llvm.lifetime.end.p0(i64 8, ptr %5) #8
  br label %146

64:                                               ; preds = %22
  %65 = load i8, ptr %3, align 1
  %66 = zext i8 %65 to i32
  %67 = icmp eq i32 %66, 16
  br i1 %67, label %68, label %105

68:                                               ; preds = %64
  call void @llvm.lifetime.start.p0(i64 8, ptr %7) #8
  %69 = load ptr, ptr %2, align 8
  %70 = getelementptr inbounds nuw %struct.XLogReaderState, ptr %69, i32 0, i32 11
  %71 = load ptr, ptr %70, align 8
  %72 = getelementptr inbounds nuw %struct.DecodedXLogRecord, ptr %71, i32 0, i32 8
  %73 = load ptr, ptr %72, align 8
  store ptr %73, ptr %7, align 8
  call void @llvm.lifetime.start.p0(i64 40, ptr %8) #8
  %74 = load ptr, ptr %7, align 8
  %75 = getelementptr inbounds nuw %struct.xl_running_xacts, ptr %74, i32 0, i32 0
  %76 = load i32, ptr %75, align 4
  %77 = getelementptr inbounds nuw %struct.RunningTransactionsData, ptr %8, i32 0, i32 0
  store i32 %76, ptr %77, align 8
  %78 = load ptr, ptr %7, align 8
  %79 = getelementptr inbounds nuw %struct.xl_running_xacts, ptr %78, i32 0, i32 1
  %80 = load i32, ptr %79, align 4
  %81 = getelementptr inbounds nuw %struct.RunningTransactionsData, ptr %8, i32 0, i32 1
  store i32 %80, ptr %81, align 4
  %82 = load ptr, ptr %7, align 8
  %83 = getelementptr inbounds nuw %struct.xl_running_xacts, ptr %82, i32 0, i32 2
  %84 = load i8, ptr %83, align 4, !range !7, !noundef !8
  %85 = trunc i8 %84 to i1
  %86 = select i1 %85, i32 1, i32 0
  %87 = getelementptr inbounds nuw %struct.RunningTransactionsData, ptr %8, i32 0, i32 2
  store i32 %86, ptr %87, align 8
  %88 = load ptr, ptr %7, align 8
  %89 = getelementptr inbounds nuw %struct.xl_running_xacts, ptr %88, i32 0, i32 3
  %90 = load i32, ptr %89, align 4
  %91 = getelementptr inbounds nuw %struct.RunningTransactionsData, ptr %8, i32 0, i32 3
  store i32 %90, ptr %91, align 4
  %92 = load ptr, ptr %7, align 8
  %93 = getelementptr inbounds nuw %struct.xl_running_xacts, ptr %92, i32 0, i32 5
  %94 = load i32, ptr %93, align 4
  %95 = getelementptr inbounds nuw %struct.RunningTransactionsData, ptr %8, i32 0, i32 6
  store i32 %94, ptr %95, align 8
  %96 = load ptr, ptr %7, align 8
  %97 = getelementptr inbounds nuw %struct.xl_running_xacts, ptr %96, i32 0, i32 4
  %98 = load i32, ptr %97, align 4
  %99 = getelementptr inbounds nuw %struct.RunningTransactionsData, ptr %8, i32 0, i32 4
  store i32 %98, ptr %99, align 8
  %100 = load ptr, ptr %7, align 8
  %101 = getelementptr inbounds nuw %struct.xl_running_xacts, ptr %100, i32 0, i32 6
  %102 = getelementptr inbounds [0 x i32], ptr %101, i64 0, i64 0
  %103 = getelementptr inbounds nuw %struct.RunningTransactionsData, ptr %8, i32 0, i32 7
  store ptr %102, ptr %103, align 8
  call void @ProcArrayApplyRecoveryInfo(ptr noundef %8)
  %104 = call i64 @pgstat_report_stat(i1 noundef zeroext true)
  call void @llvm.lifetime.end.p0(i64 40, ptr %8) #8
  call void @llvm.lifetime.end.p0(i64 8, ptr %7) #8
  br label %145

105:                                              ; preds = %64
  %106 = load i8, ptr %3, align 1
  %107 = zext i8 %106 to i32
  %108 = icmp eq i32 %107, 32
  br i1 %108, label %109, label %131

109:                                              ; preds = %105
  call void @llvm.lifetime.start.p0(i64 8, ptr %9) #8
  %110 = load ptr, ptr %2, align 8
  %111 = getelementptr inbounds nuw %struct.XLogReaderState, ptr %110, i32 0, i32 11
  %112 = load ptr, ptr %111, align 8
  %113 = getelementptr inbounds nuw %struct.DecodedXLogRecord, ptr %112, i32 0, i32 8
  %114 = load ptr, ptr %113, align 8
  store ptr %114, ptr %9, align 8
  %115 = load ptr, ptr %9, align 8
  %116 = getelementptr inbounds nuw %struct.xl_invalidations, ptr %115, i32 0, i32 4
  %117 = getelementptr inbounds [0 x %union.SharedInvalidationMessage], ptr %116, i64 0, i64 0
  %118 = load ptr, ptr %9, align 8
  %119 = getelementptr inbounds nuw %struct.xl_invalidations, ptr %118, i32 0, i32 3
  %120 = load i32, ptr %119, align 4
  %121 = load ptr, ptr %9, align 8
  %122 = getelementptr inbounds nuw %struct.xl_invalidations, ptr %121, i32 0, i32 2
  %123 = load i8, ptr %122, align 4, !range !7, !noundef !8
  %124 = trunc i8 %123 to i1
  %125 = load ptr, ptr %9, align 8
  %126 = getelementptr inbounds nuw %struct.xl_invalidations, ptr %125, i32 0, i32 0
  %127 = load i32, ptr %126, align 4
  %128 = load ptr, ptr %9, align 8
  %129 = getelementptr inbounds nuw %struct.xl_invalidations, ptr %128, i32 0, i32 1
  %130 = load i32, ptr %129, align 4
  call void @ProcessCommittedInvalidationMessages(ptr noundef %117, i32 noundef %120, i1 noundef zeroext %124, i32 noundef %127, i32 noundef %130)
  call void @llvm.lifetime.end.p0(i64 8, ptr %9) #8
  br label %144

131:                                              ; preds = %105
  br label %132

132:                                              ; preds = %131
  br i1 true, label %133, label %135

133:                                              ; preds = %132
  %134 = call zeroext i1 @errstart_cold(i32 noundef 23, ptr noundef null) #9
  br i1 %134, label %137, label %141

135:                                              ; preds = %132
  %136 = call zeroext i1 @errstart(i32 noundef 23, ptr noundef null)
  br i1 %136, label %137, label %141

137:                                              ; preds = %135, %133
  %138 = load i8, ptr %3, align 1
  %139 = zext i8 %138 to i32
  %140 = call i32 (ptr, ...) @errmsg_internal(ptr noundef @.str.13, i32 noundef %139)
  call void @errfinish(ptr noundef @.str.7, i32 noundef 1218, ptr noundef @__func__.standby_redo)
  br label %141

141:                                              ; preds = %137, %135, %133
  unreachable

142:                                              ; No predecessors!
  br label %143

143:                                              ; preds = %142
  br label %144

144:                                              ; preds = %143, %109
  br label %145

145:                                              ; preds = %144, %68
  br label %146

146:                                              ; preds = %145, %63
  store i32 0, ptr %4, align 4
  br label %147

147:                                              ; preds = %146, %21
  call void @llvm.lifetime.end.p0(i64 1, ptr %3) #8
  %148 = load i32, ptr %4, align 4
  switch i32 %148, label %150 [
    i32 0, label %149
    i32 1, label %149
  ]

149:                                              ; preds = %147, %147
  ret void

150:                                              ; preds = %147
  unreachable
}