; Function Attrs: nounwind uwtable
define dso_local void @standby_redo(ptr noundef readonly captures(none) %0) local_unnamed_addr #0 {
  %2 = alloca %struct.RunningTransactionsData, align 8
  %3 = getelementptr inbounds nuw i8, ptr %0, i64 104
  %4 = load ptr, ptr %3, align 8
  %5 = load i32, ptr @standbyState, align 4
  %6 = icmp eq i32 %5, 0
  br i1 %6, label %.loopexit, label %7

7:                                                ; preds = %1
  %8 = getelementptr inbounds nuw i8, ptr %4, i64 56
  %9 = load i8, ptr %8, align 8
  %10 = and i8 %9, -16
  switch i8 %10, label %62 [
    i8 0, label %11
    i8 16, label %27
    i8 32, label %50
  ]

11:                                               ; preds = %7
  %12 = getelementptr inbounds nuw i8, ptr %4, i64 72
  %13 = load ptr, ptr %12, align 8
  %14 = load i32, ptr %13, align 4
  %15 = icmp sgt i32 %14, 0
  br i1 %15, label %.lr.ph, label %.loopexit

.lr.ph:                                           ; preds = %11
  %16 = getelementptr inbounds nuw i8, ptr %13, i64 4
  br label %17

17:                                               ; preds = %.lr.ph, %17
  %indvars.iv = phi i64 [ 0, %.lr.ph ], [ %indvars.iv.next, %17 ]
  %18 = getelementptr inbounds nuw [0 x %struct.xl_standby_lock], ptr %16, i64 0, i64 %indvars.iv
  %19 = load i32, ptr %18, align 4
  %20 = getelementptr inbounds nuw i8, ptr %18, i64 4
  %21 = load i32, ptr %20, align 4
  %22 = getelementptr inbounds nuw i8, ptr %18, i64 8
  %23 = load i32, ptr %22, align 4
  tail call void @StandbyAcquireAccessExclusiveLock(i32 noundef %19, i32 noundef %21, i32 noundef %23)
  %indvars.iv.next = add nuw nsw i64 %indvars.iv, 1
  %24 = load i32, ptr %13, align 4
  %25 = sext i32 %24 to i64
  %26 = icmp slt i64 %indvars.iv.next, %25
  br i1 %26, label %17, label %.loopexit, !llvm.loop !17

27:                                               ; preds = %7
  %28 = getelementptr inbounds nuw i8, ptr %4, i64 72
  %29 = load ptr, ptr %28, align 8
  call void @llvm.lifetime.start.p0(i64 40, ptr nonnull %2) #7
  %30 = load i32, ptr %29, align 4
  store i32 %30, ptr %2, align 8
  %31 = getelementptr inbounds nuw i8, ptr %29, i64 4
  %32 = load i32, ptr %31, align 4
  %33 = getelementptr inbounds nuw i8, ptr %2, i64 4
  store i32 %32, ptr %33, align 4
  %34 = getelementptr inbounds nuw i8, ptr %29, i64 8
  %35 = load i8, ptr %34, align 4, !range !7, !noundef !8
  %36 = zext nneg i8 %35 to i32
  %37 = getelementptr inbounds nuw i8, ptr %2, i64 8
  store i32 %36, ptr %37, align 8
  %38 = getelementptr inbounds nuw i8, ptr %29, i64 12
  %39 = load i32, ptr %38, align 4
  %40 = getelementptr inbounds nuw i8, ptr %2, i64 12
  store i32 %39, ptr %40, align 4
  %41 = getelementptr inbounds nuw i8, ptr %29, i64 20
  %42 = load i32, ptr %41, align 4
  %43 = getelementptr inbounds nuw i8, ptr %2, i64 24
  store i32 %42, ptr %43, align 8
  %44 = getelementptr inbounds nuw i8, ptr %29, i64 16
  %45 = load i32, ptr %44, align 4
  %46 = getelementptr inbounds nuw i8, ptr %2, i64 16
  store i32 %45, ptr %46, align 8
  %47 = getelementptr inbounds nuw i8, ptr %29, i64 24
  %48 = getelementptr inbounds nuw i8, ptr %2, i64 32
  store ptr %47, ptr %48, align 8
  call void @ProcArrayApplyRecoveryInfo(ptr noundef nonnull %2) #7
  %49 = call i64 @pgstat_report_stat(i1 noundef zeroext true) #7
  call void @llvm.lifetime.end.p0(i64 40, ptr nonnull %2) #7
  br label %.loopexit

50:                                               ; preds = %7
  %51 = getelementptr inbounds nuw i8, ptr %4, i64 72
  %52 = load ptr, ptr %51, align 8
  %53 = getelementptr inbounds nuw i8, ptr %52, i64 16
  %54 = getelementptr inbounds nuw i8, ptr %52, i64 12
  %55 = load i32, ptr %54, align 4
  %56 = getelementptr inbounds nuw i8, ptr %52, i64 8
  %57 = load i8, ptr %56, align 4, !range !7, !noundef !8
  %58 = trunc nuw i8 %57 to i1
  %59 = load i32, ptr %52, align 4
  %60 = getelementptr inbounds nuw i8, ptr %52, i64 4
  %61 = load i32, ptr %60, align 4
  tail call void @ProcessCommittedInvalidationMessages(ptr noundef nonnull %53, i32 noundef %55, i1 noundef zeroext %58, i32 noundef %59, i32 noundef %61) #7
  br label %.loopexit

62:                                               ; preds = %7
  %63 = zext i8 %10 to i32
  %64 = tail call zeroext i1 @errstart_cold(i32 noundef 23, ptr noundef null) #8
  tail call void @llvm.assume(i1 %64)
  %65 = tail call i32 (ptr, ...) @errmsg_internal(ptr noundef nonnull @.str.13, i32 noundef %63) #7
  tail call void @errfinish(ptr noundef nonnull @.str.7, i32 noundef 1218, ptr noundef nonnull @__func__.standby_redo) #7
  unreachable

.loopexit:                                        ; preds = %17, %11, %50, %27, %1
  ret void
}